; Function Attrs: nofree norecurse nosync nounwind memory(argmem: readwrite) uwtable
define void @ff_sws_matrix3x3_mul(ptr noundef captures(none) %0, ptr noundef readonly captures(none) %1) local_unnamed_addr #0 {
  %3 = load float, ptr %0, align 4, !tbaa !4
  %4 = getelementptr inbounds nuw i8, ptr %0, i64 4
  %5 = load float, ptr %4, align 4, !tbaa !4
  %6 = getelementptr inbounds nuw i8, ptr %0, i64 8
  %7 = load float, ptr %6, align 4, !tbaa !4
  %8 = getelementptr inbounds nuw i8, ptr %0, i64 12
  %9 = load float, ptr %8, align 4, !tbaa !4
  %10 = getelementptr inbounds nuw i8, ptr %0, i64 16
  %11 = load float, ptr %10, align 4, !tbaa !4
  %12 = getelementptr inbounds nuw i8, ptr %0, i64 20
  %13 = load float, ptr %12, align 4, !tbaa !4
  %14 = getelementptr inbounds nuw i8, ptr %0, i64 24
  %15 = load float, ptr %14, align 4, !tbaa !4
  %16 = getelementptr inbounds nuw i8, ptr %0, i64 28
  %17 = load float, ptr %16, align 4, !tbaa !4
  %18 = getelementptr inbounds nuw i8, ptr %0, i64 32
  %19 = load float, ptr %18, align 4, !tbaa !4
  %20 = getelementptr inbounds nuw i8, ptr %1, i64 12
  %21 = getelementptr inbounds nuw i8, ptr %1, i64 24
  br label %23

22:                                               ; preds = %23
  ret void

23:                                               ; preds = %2, %23
  %indvars.iv = phi i64 [ 0, %2 ], [ %indvars.iv.next, %23 ]
  %24 = getelementptr inbounds nuw [3 x float], ptr %1, i64 0, i64 %indvars.iv
  %25 = load float, ptr %24, align 4, !tbaa !4
  %26 = getelementptr inbounds nuw [3 x float], ptr %20, i64 0, i64 %indvars.iv
  %27 = load float, ptr %26, align 4, !tbaa !4
  %28 = fmul nsz float %5, %27
  %29 = tail call nsz float @llvm.fmuladd.f32(float %3, float %25, float %28)
  %30 = getelementptr inbounds nuw [3 x float], ptr %21, i64 0, i64 %indvars.iv
  %31 = load float, ptr %30, align 4, !tbaa !4
  %32 = tail call nsz float @llvm.fmuladd.f32(float %7, float %31, float %29)
  %33 = getelementptr inbounds nuw [3 x float], ptr %0, i64 0, i64 %indvars.iv
  store float %32, ptr %33, align 4, !tbaa !4
  %34 = load float, ptr %24, align 4, !tbaa !4
  %35 = load float, ptr %26, align 4, !tbaa !4
  %36 = fmul nsz float %11, %35
  %37 = tail call nsz float @llvm.fmuladd.f32(float %9, float %34, float %36)
  %38 = load float, ptr %30, align 4, !tbaa !4
  %39 = tail call nsz float @llvm.fmuladd.f32(float %13, float %38, float %37)
  %40 = getelementptr inbounds nuw [3 x float], ptr %8, i64 0, i64 %indvars.iv
  store float %39, ptr %40, align 4, !tbaa !4
  %41 = load float, ptr %24, align 4, !tbaa !4
  %42 = load float, ptr %26, align 4, !tbaa !4
  %43 = fmul nsz float %17, %42
  %44 = tail call nsz float @llvm.fmuladd.f32(float %15, float %41, float %43)
  %45 = load float, ptr %30, align 4, !tbaa !4
  %46 = tail call nsz float @llvm.fmuladd.f32(float %19, float %45, float %44)
  %47 = getelementptr inbounds nuw [3 x float], ptr %14, i64 0, i64 %indvars.iv
  store float %46, ptr %47, align 4, !tbaa !4
  %indvars.iv.next = add nuw nsw i64 %indvars.iv, 1
  %exitcond.not = icmp eq i64 %indvars.iv.next, 3
  br i1 %exitcond.not, label %22, label %23, !llvm.loop !8
}